target datalayout = "e-m:e-p270:32:32-p271:32:32-p272:64:64-i64:64-i128:128-f80:128-n8:16:32:64-S128"
target triple = "x86_64-pc-linux-gnu"

%struct.SDL_HIDAPI_Device = type { ptr, ptr, ptr, ptr, i16, i16, i16, ptr, %struct.SDL_GUID, i32, i32, i32, i32, i16, i16, i8, i32, i32, i32, ptr, ptr, ptr, ptr, %struct.SDL_AtomicInt, i32, ptr, i8, i8, i8, ptr, i32, ptr, ptr }
%struct.SDL_GUID = type { [16 x i8] }
%struct.SDL_AtomicInt = type { i32 }
%struct.SDL_HIDAPI_DeviceDriver = type { ptr, i8, ptr, ptr, ptr, ptr, ptr, ptr, ptr, ptr, ptr, ptr, ptr, ptr, ptr, ptr, ptr, ptr, ptr }

; Function Attrs: nounwind uwtable
define internal zeroext i1 @HIDAPI_DriverCombined_SetJoystickLED(ptr noundef %0, ptr noundef %1, i8 noundef zeroext %2, i8 noundef zeroext %3, i8 noundef zeroext %4) #0 {
  %6 = alloca ptr, align 8
  %7 = alloca ptr, align 8
  %8 = alloca i8, align 1
  %9 = alloca i8, align 1
  %10 = alloca i8, align 1
  %11 = alloca i32, align 4
  %12 = alloca i8, align 1
  %13 = alloca ptr, align 8
  store ptr %0, ptr %6, align 8
  store ptr %1, ptr %7, align 8
  store i8 %2, ptr %8, align 1
  store i8 %3, ptr %9, align 1
  store i8 %4, ptr %10, align 1
  call void @llvm.lifetime.start.p0(i64 4, ptr %11) #4
  call void @llvm.lifetime.start.p0(i64 1, ptr %12) #4
  store i8 0, ptr %12, align 1
  store i32 0, ptr %11, align 4
  br label %14

14:                                               ; preds = %41, %5
  %15 = load i32, ptr %11, align 4
  %16 = load ptr, ptr %6, align 8
  %17 = getelementptr inbounds nuw %struct.SDL_HIDAPI_Device, ptr %16, i32 0, i32 30
  %18 = load i32, ptr %17, align 8
  %19 = icmp slt i32 %15, %18
  br i1 %19, label %20, label %44

20:                                               ; preds = %14
  call void @llvm.lifetime.start.p0(i64 8, ptr %13) #4
  %21 = load ptr, ptr %6, align 8
  %22 = getelementptr inbounds nuw %struct.SDL_HIDAPI_Device, ptr %21, i32 0, i32 31
  %23 = load ptr, ptr %22, align 8
  %24 = load i32, ptr %11, align 4
  %25 = sext i32 %24 to i64
  %26 = getelementptr inbounds ptr, ptr %23, i64 %25
  %27 = load ptr, ptr %26, align 8
  store ptr %27, ptr %13, align 8
  %28 = load ptr, ptr %13, align 8
  %29 = getelementptr inbounds nuw %struct.SDL_HIDAPI_Device, ptr %28, i32 0, i32 19
  %30 = load ptr, ptr %29, align 8
  %31 = getelementptr inbounds nuw %struct.SDL_HIDAPI_DeviceDriver, ptr %30, i32 0, i32 14
  %32 = load ptr, ptr %31, align 8
  %33 = load ptr, ptr %13, align 8
  %34 = load ptr, ptr %7, align 8
  %35 = load i8, ptr %8, align 1
  %36 = load i8, ptr %9, align 1
  %37 = load i8, ptr %10, align 1
  %38 = call zeroext i1 %32(ptr noundef %33, ptr noundef %34, i8 noundef zeroext %35, i8 noundef zeroext %36, i8 noundef zeroext %37)
  br i1 %38, label %39, label %40

39:                                               ; preds = %20
  store i8 1, ptr %12, align 1
  br label %40

40:                                               ; preds = %39, %20
  call void @llvm.lifetime.end.p0(i64 8, ptr %13) #4
  br label %41

41:                                               ; preds = %40
  %42 = load i32, ptr %11, align 4
  %43 = add nsw i32 %42, 1
  store i32 %43, ptr %11, align 4
  br label %14, !llvm.loop !12

44:                                               ; preds = %14
  %45 = load i8, ptr %12, align 1, !range !8, !noundef !9
  %46 = trunc i8 %45 to i1
  call void @llvm.lifetime.end.p0(i64 1, ptr %12) #4
  call void @llvm.lifetime.end.p0(i64 4, ptr %11) #4
  ret i1 %46
}