; Function Attrs: nounwind uwtable
define internal zeroext i1 @HIDAPI_DriverCombined_SetJoystickLED(ptr noundef readonly captures(none) %0, ptr noundef %1, i8 noundef zeroext %2, i8 noundef zeroext %3, i8 noundef zeroext %4) #1 {
  %6 = getelementptr inbounds nuw i8, ptr %0, i64 168
  %7 = load i32, ptr %6, align 8
  %8 = icmp sgt i32 %7, 0
  br i1 %8, label %.lr.ph, label %._crit_edge

.lr.ph:                                           ; preds = %5
  %9 = getelementptr inbounds nuw i8, ptr %0, i64 176
  br label %10

10:                                               ; preds = %.lr.ph, %10
  %indvars.iv = phi i64 [ 0, %.lr.ph ], [ %indvars.iv.next, %10 ]
  %.01112 = phi i1 [ false, %.lr.ph ], [ %spec.select, %10 ]
  %11 = load ptr, ptr %9, align 8
  %12 = getelementptr inbounds nuw ptr, ptr %11, i64 %indvars.iv
  %13 = load ptr, ptr %12, align 8
  %14 = getelementptr inbounds nuw i8, ptr %13, i64 104
  %15 = load ptr, ptr %14, align 8
  %16 = getelementptr inbounds nuw i8, ptr %15, i64 112
  %17 = load ptr, ptr %16, align 8
  %18 = tail call zeroext i1 %17(ptr noundef %13, ptr noundef %1, i8 noundef zeroext %2, i8 noundef zeroext %3, i8 noundef zeroext %4) #4
  %spec.select = select i1 %18, i1 true, i1 %.01112
  %indvars.iv.next = add nuw nsw i64 %indvars.iv, 1
  %19 = load i32, ptr %6, align 8
  %20 = sext i32 %19 to i64
  %21 = icmp slt i64 %indvars.iv.next, %20
  br i1 %21, label %10, label %._crit_edge, !llvm.loop !9

._crit_edge:                                      ; preds = %10, %5
  %.011.lcssa = phi i1 [ false, %5 ], [ %spec.select, %10 ]
  ret i1 %.011.lcssa
}